target datalayout = "e-m:e-p270:32:32-p271:32:32-p272:64:64-i64:64-i128:128-f80:128-n8:16:32:64-S128"
target triple = "x86_64-pc-linux-gnu"

%struct._lv_rb_node_t = type { ptr, ptr, ptr, i32, ptr }

; Function Attrs: nounwind uwtable
define ptr @lv_rb_minimum_from(ptr noundef %0) #0 {
  %2 = alloca ptr, align 8
  store ptr %0, ptr %2, align 8, !tbaa !16
  br label %3

3:                                                ; preds = %8, %1
  %4 = load ptr, ptr %2, align 8, !tbaa !16
  %5 = getelementptr inbounds nuw %struct._lv_rb_node_t, ptr %4, i32 0, i32 1
  %6 = load ptr, ptr %5, align 8, !tbaa !22
  %7 = icmp ne ptr %6, null
  br i1 %7, label %8, label %12

8:                                                ; preds = %3
  %9 = load ptr, ptr %2, align 8, !tbaa !16
  %10 = getelementptr inbounds nuw %struct._lv_rb_node_t, ptr %9, i32 0, i32 1
  %11 = load ptr, ptr %10, align 8, !tbaa !22
  store ptr %11, ptr %2, align 8, !tbaa !16
  br label %3, !llvm.loop !30

12:                                               ; preds = %3
  %13 = load ptr, ptr %2, align 8, !tbaa !16
  ret ptr %13
}