; Function Attrs: nofree norecurse nosync nounwind memory(read, inaccessiblemem: none) uwtable
define ptr @lv_rb_minimum_from(ptr noundef readonly captures(ret: address, provenance) %0) local_unnamed_addr #1 {
  br label %2

2:                                                ; preds = %2, %1
  %.0 = phi ptr [ %0, %1 ], [ %4, %2 ]
  %3 = getelementptr inbounds nuw i8, ptr %.0, i64 8
  %4 = load ptr, ptr %3, align 8, !tbaa !21
  %.not = icmp eq ptr %4, null
  br i1 %.not, label %5, label %2, !llvm.loop !24

5:                                                ; preds = %2
  ret ptr %.0
}